target datalayout = "e-m:e-p270:32:32-p271:32:32-p272:64:64-i64:64-i128:128-f80:128-n8:16:32:64-S128"
target triple = "x86_64-pc-linux-gnu"

; Function Attrs: mustprogress nounwind uwtable
define internal void @_ZN7Imf_3_412_GLOBAL__N_117interleave_scalarEPKcmPc(ptr noundef %0, i64 noundef %1, ptr noundef %2) #3 {
  %4 = alloca ptr, align 8
  %5 = alloca i64, align 8
  %6 = alloca ptr, align 8
  %7 = alloca ptr, align 8
  %8 = alloca ptr, align 8
  %9 = alloca ptr, align 8
  %10 = alloca ptr, align 8
  store ptr %0, ptr %4, align 8, !tbaa !17
  store i64 %1, ptr %5, align 8, !tbaa !8
  store ptr %2, ptr %6, align 8, !tbaa !17
  call void @llvm.lifetime.start.p0(i64 8, ptr %7) #11
  %11 = load ptr, ptr %4, align 8, !tbaa !17
  store ptr %11, ptr %7, align 8, !tbaa !17
  call void @llvm.lifetime.start.p0(i64 8, ptr %8) #11
  %12 = load ptr, ptr %4, align 8, !tbaa !17
  %13 = load i64, ptr %5, align 8, !tbaa !8
  %14 = add i64 %13, 1
  %15 = udiv i64 %14, 2
  %16 = getelementptr inbounds nuw i8, ptr %12, i64 %15
  store ptr %16, ptr %8, align 8, !tbaa !17
  call void @llvm.lifetime.start.p0(i64 8, ptr %9) #11
  %17 = load ptr, ptr %6, align 8, !tbaa !17
  store ptr %17, ptr %9, align 8, !tbaa !17
  call void @llvm.lifetime.start.p0(i64 8, ptr %10) #11
  %18 = load ptr, ptr %9, align 8, !tbaa !17
  %19 = load i64, ptr %5, align 8, !tbaa !8
  %20 = getelementptr inbounds nuw i8, ptr %18, i64 %19
  store ptr %20, ptr %10, align 8, !tbaa !17
  br label %21

21:                                               ; preds = %44, %3
  br label %22

22:                                               ; preds = %21
  %23 = load ptr, ptr %9, align 8, !tbaa !17
  %24 = load ptr, ptr %10, align 8, !tbaa !17
  %25 = icmp ult ptr %23, %24
  br i1 %25, label %26, label %32

26:                                               ; preds = %22
  %27 = load ptr, ptr %7, align 8, !tbaa !17
  %28 = getelementptr inbounds nuw i8, ptr %27, i32 1
  store ptr %28, ptr %7, align 8, !tbaa !17
  %29 = load i8, ptr %27, align 1, !tbaa !18
  %30 = load ptr, ptr %9, align 8, !tbaa !17
  %31 = getelementptr inbounds nuw i8, ptr %30, i32 1
  store ptr %31, ptr %9, align 8, !tbaa !17
  store i8 %29, ptr %30, align 1, !tbaa !18
  br label %33

32:                                               ; preds = %22
  br label %45

33:                                               ; preds = %26
  %34 = load ptr, ptr %9, align 8, !tbaa !17
  %35 = load ptr, ptr %10, align 8, !tbaa !17
  %36 = icmp ult ptr %34, %35
  br i1 %36, label %37, label %43

37:                                               ; preds = %33
  %38 = load ptr, ptr %8, align 8, !tbaa !17
  %39 = getelementptr inbounds nuw i8, ptr %38, i32 1
  store ptr %39, ptr %8, align 8, !tbaa !17
  %40 = load i8, ptr %38, align 1, !tbaa !18
  %41 = load ptr, ptr %9, align 8, !tbaa !17
  %42 = getelementptr inbounds nuw i8, ptr %41, i32 1
  store ptr %42, ptr %9, align 8, !tbaa !17
  store i8 %40, ptr %41, align 1, !tbaa !18
  br label %44

43:                                               ; preds = %33
  br label %45

44:                                               ; preds = %37
  br label %21, !llvm.loop !31

45:                                               ; preds = %43, %32
  call void @llvm.lifetime.end.p0(i64 8, ptr %10) #11
  call void @llvm.lifetime.end.p0(i64 8, ptr %9) #11
  call void @llvm.lifetime.end.p0(i64 8, ptr %8) #11
  call void @llvm.lifetime.end.p0(i64 8, ptr %7) #11
  ret void
}