; Function Attrs: mustprogress nofree norecurse nosync nounwind memory(argmem: readwrite) uwtable
define internal void @_ZN7Imf_3_412_GLOBAL__N_117interleave_scalarEPKcmPc(ptr noundef readonly captures(none) %0, i64 noundef %1, ptr noundef writeonly %2) #10 {
  %4 = getelementptr inbounds nuw i8, ptr %2, i64 %1
  %.not = icmp eq i64 %1, 0
  br i1 %.not, label %._crit_edge, label %.lr.ph.preheader

.lr.ph.preheader:                                 ; preds = %3
  %5 = add i64 %1, 1
  %6 = lshr i64 %5, 1
  %7 = getelementptr inbounds nuw i8, ptr %0, i64 %6
  br label %.lr.ph

.lr.ph:                                           ; preds = %.lr.ph.preheader, %11
  %.019 = phi ptr [ %12, %11 ], [ %0, %.lr.ph.preheader ]
  %.01318 = phi ptr [ %15, %11 ], [ %2, %.lr.ph.preheader ]
  %.01417 = phi ptr [ %13, %11 ], [ %7, %.lr.ph.preheader ]
  %8 = load i8, ptr %.019, align 1, !tbaa !13
  %9 = getelementptr inbounds nuw i8, ptr %.01318, i64 1
  store i8 %8, ptr %.01318, align 1, !tbaa !13
  %10 = icmp ult ptr %9, %4
  br i1 %10, label %11, label %._crit_edge

11:                                               ; preds = %.lr.ph
  %12 = getelementptr inbounds nuw i8, ptr %.019, i64 1
  %13 = getelementptr inbounds nuw i8, ptr %.01417, i64 1
  %14 = load i8, ptr %.01417, align 1, !tbaa !13
  %15 = getelementptr inbounds nuw i8, ptr %.01318, i64 2
  store i8 %14, ptr %9, align 1, !tbaa !13
  %16 = icmp ult ptr %15, %4
  br i1 %16, label %.lr.ph, label %._crit_edge, !llvm.loop !28

._crit_edge:                                      ; preds = %11, %.lr.ph, %3
  ret void
}